; Function Attrs: mustprogress nofree norecurse nosync nounwind memory(readwrite, inaccessiblemem: none) uwtable
define dso_local void @_ZN4llvm12MachineInstr13clearKillInfoEv(ptr nocapture noundef nonnull readonly align 8 dereferenceable(70) %0) local_unnamed_addr #9 align 2 {
  %2 = getelementptr inbounds nuw i8, ptr %0, i64 32
  %3 = load ptr, ptr %2, align 8
  %4 = getelementptr inbounds nuw i8, ptr %0, i64 40
  %5 = load i24, ptr %4, align 8
  %6 = zext i24 %5 to i64
  %7 = getelementptr inbounds %"class.llvm::MachineOperand", ptr %3, i64 %6
  %.not10 = icmp eq i24 %5, 0
  br i1 %.not10, label %._crit_edge, label %.lr.ph

.lr.ph:                                           ; preds = %1, %12
  %.011 = phi ptr [ %13, %12 ], [ %3, %1 ]
  %8 = load i32, ptr %.011, align 8
  %9 = and i32 %8, 16777471
  %or.cond = icmp eq i32 %9, 0
  br i1 %or.cond, label %10, label %12

10:                                               ; preds = %.lr.ph
  %11 = and i32 %8, -83886336
  store i32 %11, ptr %.011, align 8
  br label %12

12:                                               ; preds = %.lr.ph, %10
  %13 = getelementptr inbounds i8, ptr %.011, i64 32
  %.not = icmp eq ptr %13, %7
  br i1 %.not, label %._crit_edge, label %.lr.ph

._crit_edge:                                      ; preds = %12, %1
  ret void
}